; Function Attrs: mustprogress uwtable
define void @_ZN5osgeo4proj4util11PropertyMapC2Ev(ptr nocapture noundef nonnull writeonly align 8 dereferenceable(8) %0) unnamed_addr #0 align 2 personality ptr @__gxx_personality_v0 {
  tail call void @llvm.experimental.noalias.scope.decl(metadata !64)
  %2 = tail call noalias noundef nonnull dereferenceable(24) ptr @_Znwm(i64 noundef 24) #23, !noalias !64
  %3 = getelementptr inbounds i8, ptr %2, i64 8
  store ptr %2, ptr %3, align 8, !noalias !64
  store ptr %2, ptr %2, align 8, !noalias !64
  %4 = getelementptr inbounds i8, ptr %2, i64 16
  store i64 0, ptr %4, align 8, !noalias !64
  store ptr %2, ptr %0, align 8, !alias.scope !64
  ret void
}